target datalayout = "e-m:e-p270:32:32-p271:32:32-p272:64:64-i64:64-i128:128-f80:128-n8:16:32:64-S128"
target triple = "x86_64-unknown-linux-gnu"

%"class.icu_75::DateIntervalInfo" = type { %"class.icu_75::UObject", %"class.icu_75::UnicodeString", i8, ptr }
%"class.icu_75::UObject" = type { ptr }
%"class.icu_75::UnicodeString" = type { %"class.icu_75::Replaceable", %"union.icu_75::UnicodeString::StackBufferOrFields" }
%"class.icu_75::Replaceable" = type { %"class.icu_75::UObject" }
%"union.icu_75::UnicodeString::StackBufferOrFields" = type { %struct.anon.0, [32 x i8] }
%struct.anon.0 = type { i16, i32, i32, ptr }

; Function Attrs: mustprogress nounwind uwtable
define void @_ZN6icu_7516DateIntervalInfoD2Ev(ptr noundef nonnull align 8 dereferenceable(88) %this) unnamed_addr #0 align 2 personality ptr @__gxx_personality_v0 {
entry:
  %this.addr = alloca ptr, align 8
  store ptr %this, ptr %this.addr, align 8
  %this1 = load ptr, ptr %this.addr, align 8
  %fIntervalPatterns = getelementptr inbounds %"class.icu_75::DateIntervalInfo", ptr %this1, i32 0, i32 3
  %0 = load ptr, ptr %fIntervalPatterns, align 8
  invoke void @_ZN6icu_7516DateIntervalInfo10deleteHashEPNS_9HashtableE(ptr noundef nonnull align 8 dereferenceable(88) %this1, ptr noundef %0)
          to label %invoke.cont unwind label %terminate.lpad

invoke.cont:                                      ; preds = %entry
  %fIntervalPatterns2 = getelementptr inbounds %"class.icu_75::DateIntervalInfo", ptr %this1, i32 0, i32 3
  store ptr null, ptr %fIntervalPatterns2, align 8
  %fFallbackIntervalPattern = getelementptr inbounds %"class.icu_75::DateIntervalInfo", ptr %this1, i32 0, i32 1
  call void @_ZN6icu_7513UnicodeStringD1Ev(ptr noundef nonnull align 8 dereferenceable(64) %fFallbackIntervalPattern) #9
  call void @_ZN6icu_757UObjectD2Ev(ptr noundef nonnull align 8 dereferenceable(8) %this1) #9
  ret void

terminate.lpad:                                   ; preds = %entry
  %1 = landingpad { ptr, i32 }
          catch ptr null
  %2 = extractvalue { ptr, i32 } %1, 0
  call void @__clang_call_terminate(ptr %2) #11
  unreachable
}