; Function Attrs: mustprogress nounwind uwtable
define void @_ZN6icu_7516DateIntervalInfoD2Ev(ptr noundef nonnull align 8 dereferenceable(88) %this) unnamed_addr #0 align 2 personality ptr @__gxx_personality_v0 {
entry:
  %fIntervalPatterns = getelementptr inbounds i8, ptr %this, i64 80
  %0 = load ptr, ptr %fIntervalPatterns, align 8
  invoke void @_ZN6icu_7516DateIntervalInfo10deleteHashEPNS_9HashtableE(ptr noundef nonnull align 8 dereferenceable(88) %this, ptr noundef %0)
          to label %invoke.cont unwind label %terminate.lpad

invoke.cont:                                      ; preds = %entry
  store ptr null, ptr %fIntervalPatterns, align 8
  %fFallbackIntervalPattern = getelementptr inbounds i8, ptr %this, i64 8
  tail call void @_ZN6icu_7513UnicodeStringD1Ev(ptr noundef nonnull align 8 dereferenceable(64) %fFallbackIntervalPattern) #15
  tail call void @_ZN6icu_757UObjectD2Ev(ptr noundef nonnull align 8 dereferenceable(8) %this) #15
  ret void

terminate.lpad:                                   ; preds = %entry
  %1 = landingpad { ptr, i32 }
          catch ptr null
  %2 = extractvalue { ptr, i32 } %1, 0
  tail call void @__clang_call_terminate(ptr %2) #17
  unreachable
}